target datalayout = "e-m:e-p270:32:32-p271:32:32-p272:64:64-i64:64-i128:128-f80:128-n8:16:32:64-S128"
target triple = "x86_64-pc-linux-gnu"

%struct.slurm_conf_t = type { i64, ptr, i16, ptr, ptr, ptr, ptr, ptr, i16, ptr, ptr, ptr, ptr, ptr, ptr, ptr, i16, ptr, ptr, ptr, ptr, i16, ptr, ptr, ptr, i64, ptr, ptr, ptr, ptr, i16, ptr, ptr, i16, i32, ptr, i32, ptr, i32, i32, ptr, ptr, i64, i64, ptr, i16, i16, ptr, i32, i32, ptr, i32, ptr, i32, i16, i16, i16, ptr, i16, i16, ptr, ptr, i32, i16, i16, ptr, i32, i16, ptr, ptr, ptr, ptr, i16, ptr, ptr, ptr, ptr, i32, ptr, ptr, ptr, ptr, i16, i16, ptr, i32, i32, i32, i16, i16, ptr, ptr, i16, ptr, ptr, i32, i32, i32, i32, i32, i64, i32, i32, i16, ptr, ptr, i32, ptr, ptr, ptr, i16, i32, ptr, ptr, i16, ptr, ptr, i32, i16, ptr, ptr, ptr, ptr, i32, i32, i16, i16, i32, ptr, i16, ptr, i32, i32, i32, i32, i32, i32, ptr, i16, ptr, ptr, i32, i16, ptr, i32, i16, i16, ptr, ptr, ptr, i16, ptr, ptr, ptr, ptr, i16, i16, ptr, i16, ptr, i16, ptr, i16, ptr, i16, ptr, ptr, ptr, ptr, i16, ptr, ptr, ptr, i32, ptr, i32, ptr, ptr, i16, ptr, ptr, i32, i16, ptr, ptr, i16, i16, ptr, i16, ptr, ptr, ptr, i32, ptr, i16, i16, ptr, ptr, ptr, ptr, ptr, ptr, ptr, ptr, i16, i32, i16, ptr, ptr, ptr, ptr, i32, ptr, ptr, ptr, i16, ptr, ptr, ptr, i16, ptr, i16, ptr, i16, i16, ptr }
%struct.slurmctld_resv = type { i16, ptr, i32, ptr, ptr, i32, ptr, ptr, i32, ptr, i32, ptr, i32, i64, i64, ptr, i64, ptr, ptr, i32, i32, ptr, ptr, i32, ptr, ptr, i32, ptr, ptr, ptr, i32, i32, i64, i64, i64, i64, ptr, ptr, ptr, i32, ptr }
%struct.part_record = type { i32, ptr, ptr, ptr, ptr, ptr, ptr, i32, ptr, ptr, ptr, ptr, ptr, i32, i64, i32, ptr, ptr, ptr, ptr, ptr, i32, i32, ptr, i32, i32, i64, i32, i32, i16, i32, i32, i32, i32, ptr, ptr, ptr, ptr, ptr, double, i16, i16, i16, i16, ptr, ptr, i16, i16, i32, i16, i32, i32, i32, i32, i16, ptr, ptr, ptr }
%struct.job_record = type { i32, ptr, ptr, ptr, ptr, i16, i32, i32, i32, ptr, i32, ptr, ptr, i16, ptr, double, i64, ptr, ptr, ptr, ptr, ptr, ptr, i32, ptr, i32, i64, i64, i32, i32, ptr, i16, i64, i64, i8, i32, ptr, ptr, ptr, ptr, ptr, ptr, ptr, ptr, i32, ptr, ptr, i32, ptr, i32, ptr, i32, ptr, i32, ptr, ptr, ptr, ptr, ptr, ptr, i32, i16, i64, ptr, ptr, ptr, ptr, %struct.acct_policy_limit_set_t, i16, ptr, ptr, ptr, ptr, ptr, i32, ptr, ptr, ptr, ptr, ptr, i32, i32, ptr, ptr, ptr, i16, ptr, ptr, i8, ptr, ptr, i64, i64, i8, i32, i32, i8, i32, ptr, i32, i64, i32, ptr, ptr, ptr, i8, i16, i64, i32, ptr, ptr, ptr, ptr, ptr, i16, i32, ptr, ptr, ptr, ptr, i32, ptr, i32, i16, i64, ptr, i32, i32, ptr, i64, ptr, ptr, i64, i32, i32, i64, i32, i32, ptr, ptr, ptr, ptr, ptr, ptr, ptr, ptr, ptr, ptr, ptr, ptr, i32, ptr, i16, i16, i16, i16, ptr, i32, i32, i8, i64 }
%struct.acct_policy_limit_set_t = type { i16, i16, ptr }
%struct.licenses_t = type { ptr, i32, i32, i32, i8, i32, i32, i64 }

@resv_list = dso_local global ptr null, align 8
@slurm_conf = external global %struct.slurm_conf_t, align 8

; Function Attrs: nounwind uwtable
define internal i32 @_license_cnt(ptr noundef %0, ptr noundef %1) #0 {
  %3 = alloca i32, align 4
  %4 = alloca ptr, align 8
  %5 = alloca ptr, align 8
  %6 = alloca i32, align 4
  %7 = alloca ptr, align 8
  %8 = alloca ptr, align 8
  %9 = alloca i32, align 4
  store ptr %0, ptr %4, align 8
  store ptr %1, ptr %5, align 8
  call void @llvm.lifetime.start.p0(i64 4, ptr %6) #10
  store i32 0, ptr %6, align 4
  call void @llvm.lifetime.start.p0(i64 8, ptr %7) #10
  call void @llvm.lifetime.start.p0(i64 8, ptr %8) #10
  %10 = load ptr, ptr %4, align 8
  %11 = icmp eq ptr %10, null
  br i1 %11, label %12, label %14

12:                                               ; preds = %2
  %13 = load i32, ptr %6, align 4
  store i32 %13, ptr %3, align 4
  store i32 1, ptr %9, align 4
  br label %38

14:                                               ; preds = %2
  %15 = load ptr, ptr %4, align 8
  %16 = call ptr @list_iterator_create(ptr noundef %15)
  store ptr %16, ptr %7, align 8
  br label %17

17:                                               ; preds = %34, %14
  %18 = load ptr, ptr %7, align 8
  %19 = call ptr @list_next(ptr noundef %18)
  store ptr %19, ptr %8, align 8
  %20 = icmp ne ptr %19, null
  br i1 %20, label %21, label %35

21:                                               ; preds = %17
  %22 = load ptr, ptr %8, align 8
  %23 = getelementptr inbounds nuw %struct.licenses_t, ptr %22, i32 0, i32 0
  %24 = load ptr, ptr %23, align 8
  %25 = load ptr, ptr %5, align 8
  %26 = call i32 @xstrcmp(ptr noundef %24, ptr noundef %25)
  %27 = icmp eq i32 %26, 0
  br i1 %27, label %28, label %34

28:                                               ; preds = %21
  %29 = load ptr, ptr %8, align 8
  %30 = getelementptr inbounds nuw %struct.licenses_t, ptr %29, i32 0, i32 1
  %31 = load i32, ptr %30, align 8
  %32 = load i32, ptr %6, align 4
  %33 = add i32 %32, %31
  store i32 %33, ptr %6, align 4
  br label %34

34:                                               ; preds = %28, %21
  br label %17, !llvm.loop !68

35:                                               ; preds = %17
  %36 = load ptr, ptr %7, align 8
  call void @list_iterator_destroy(ptr noundef %36)
  %37 = load i32, ptr %6, align 4
  store i32 %37, ptr %3, align 4
  store i32 1, ptr %9, align 4
  br label %38

38:                                               ; preds = %35, %12
  call void @llvm.lifetime.end.p0(i64 8, ptr %8) #10
  call void @llvm.lifetime.end.p0(i64 8, ptr %7) #10
  call void @llvm.lifetime.end.p0(i64 4, ptr %6) #10
  %39 = load i32, ptr %3, align 4
  ret i32 %39
}

; Function Attrs: nounwind uwtable
define internal i32 @_get_job_duration(ptr noundef %0, i1 noundef zeroext %1) #0 {
  %3 = alloca ptr, align 8
  %4 = alloca i8, align 1
  %5 = alloca i32, align 4
  %6 = alloca i16, align 2
  store ptr %0, ptr %3, align 8
  %7 = zext i1 %1 to i8
  store i8 %7, ptr %4, align 1
  call void @llvm.lifetime.start.p0(i64 4, ptr %5) #10
  call void @llvm.lifetime.start.p0(i64 2, ptr %6) #10
  store i16 1, ptr %6, align 2
  %8 = load ptr, ptr %3, align 8
  %9 = getelementptr inbounds nuw %struct.job_record, ptr %8, i32 0, i32 133
  %10 = load i32, ptr %9, align 8
  %11 = icmp eq i32 %10, -1
  br i1 %11, label %12, label %13

12:                                               ; preds = %2
  store i32 31536000, ptr %5, align 4
  br label %40

13:                                               ; preds = %2
  %14 = load ptr, ptr %3, align 8
  %15 = getelementptr inbounds nuw %struct.job_record, ptr %14, i32 0, i32 133
  %16 = load i32, ptr %15, align 8
  %17 = icmp ne i32 %16, -2
  br i1 %17, label %18, label %23

18:                                               ; preds = %13
  %19 = load ptr, ptr %3, align 8
  %20 = getelementptr inbounds nuw %struct.job_record, ptr %19, i32 0, i32 133
  %21 = load i32, ptr %20, align 8
  %22 = mul i32 %21, 60
  store i32 %22, ptr %5, align 4
  br label %39

23:                                               ; preds = %13
  %24 = load ptr, ptr %3, align 8
  %25 = getelementptr inbounds nuw %struct.job_record, ptr %24, i32 0, i32 89
  %26 = load ptr, ptr %25, align 8
  %27 = getelementptr inbounds nuw %struct.part_record, ptr %26, i32 0, i32 30
  %28 = load i32, ptr %27, align 4
  %29 = icmp eq i32 %28, -1
  br i1 %29, label %30, label %31

30:                                               ; preds = %23
  store i32 31536000, ptr %5, align 4
  br label %38

31:                                               ; preds = %23
  %32 = load ptr, ptr %3, align 8
  %33 = getelementptr inbounds nuw %struct.job_record, ptr %32, i32 0, i32 89
  %34 = load ptr, ptr %33, align 8
  %35 = getelementptr inbounds nuw %struct.part_record, ptr %34, i32 0, i32 30
  %36 = load i32, ptr %35, align 4
  %37 = mul i32 %36, 60
  store i32 %37, ptr %5, align 4
  br label %38

38:                                               ; preds = %31, %30
  br label %39

39:                                               ; preds = %38, %18
  br label %40

40:                                               ; preds = %39, %12
  %41 = load ptr, ptr %3, align 8
  %42 = getelementptr inbounds nuw %struct.job_record, ptr %41, i32 0, i32 89
  %43 = load ptr, ptr %42, align 8
  %44 = icmp ne ptr %43, null
  br i1 %44, label %45, label %54

45:                                               ; preds = %40
  %46 = load ptr, ptr %3, align 8
  %47 = getelementptr inbounds nuw %struct.job_record, ptr %46, i32 0, i32 89
  %48 = load ptr, ptr %47, align 8
  %49 = getelementptr inbounds nuw %struct.part_record, ptr %48, i32 0, i32 29
  %50 = load i16, ptr %49, align 8
  %51 = zext i16 %50 to i32
  %52 = and i32 %51, -32769
  %53 = trunc i32 %52 to i16
  store i16 %53, ptr %6, align 2
  br label %54

54:                                               ; preds = %45, %40
  %55 = load i32, ptr %5, align 4
  %56 = icmp ne i32 %55, 31536000
  br i1 %56, label %57, label %71

57:                                               ; preds = %54
  %58 = load i16, ptr %6, align 2
  %59 = zext i16 %58 to i32
  %60 = icmp sgt i32 %59, 1
  br i1 %60, label %61, label %71

61:                                               ; preds = %57
  %62 = load i16, ptr getelementptr inbounds nuw (%struct.slurm_conf_t, ptr @slurm_conf, i32 0, i32 118), align 4
  %63 = zext i16 %62 to i32
  %64 = and i32 %63, 32768
  %65 = icmp ne i32 %64, 0
  br i1 %65, label %66, label %71

66:                                               ; preds = %61
  %67 = load i16, ptr %6, align 2
  %68 = zext i16 %67 to i32
  %69 = load i32, ptr %5, align 4
  %70 = mul i32 %69, %68
  store i32 %70, ptr %5, align 4
  br label %71

71:                                               ; preds = %66, %61, %57, %54
  %72 = load i32, ptr %5, align 4
  call void @llvm.lifetime.end.p0(i64 2, ptr %6) #10
  call void @llvm.lifetime.end.p0(i64 4, ptr %5) #10
  ret i32 %72
}

; Function Attrs: nounwind uwtable
define dso_local i32 @job_test_lic_resv(ptr noundef %0, ptr noundef %1, i64 noundef %2, i1 noundef zeroext %3) #0 {
  %5 = alloca ptr, align 8
  %6 = alloca ptr, align 8
  %7 = alloca i64, align 8
  %8 = alloca i8, align 1
  %9 = alloca ptr, align 8
  %10 = alloca i64, align 8
  %11 = alloca i64, align 8
  %12 = alloca i64, align 8
  %13 = alloca i64, align 8
  %14 = alloca ptr, align 8
  %15 = alloca i32, align 4
  store ptr %0, ptr %5, align 8
  store ptr %1, ptr %6, align 8
  store i64 %2, ptr %7, align 8
  %16 = zext i1 %3 to i8
  store i8 %16, ptr %8, align 1
  call void @llvm.lifetime.start.p0(i64 8, ptr %9) #10
  call void @llvm.lifetime.start.p0(i64 8, ptr %10) #10
  call void @llvm.lifetime.start.p0(i64 8, ptr %11) #10
  call void @llvm.lifetime.start.p0(i64 8, ptr %12) #10
  %17 = call i64 @time(ptr noundef null) #10
  store i64 %17, ptr %12, align 8
  call void @llvm.lifetime.start.p0(i64 8, ptr %13) #10
  call void @llvm.lifetime.start.p0(i64 8, ptr %14) #10
  call void @llvm.lifetime.start.p0(i64 4, ptr %15) #10
  store i32 0, ptr %15, align 4
  %18 = load i64, ptr %7, align 8
  store i64 %18, ptr %10, align 8
  %19 = load i64, ptr %7, align 8
  %20 = load ptr, ptr %5, align 8
  %21 = load i8, ptr %8, align 1, !range !11, !noundef !12
  %22 = trunc i8 %21 to i1
  %23 = call i32 @_get_job_duration(ptr noundef %20, i1 noundef zeroext %22)
  %24 = zext i32 %23 to i64
  %25 = add nsw i64 %19, %24
  store i64 %25, ptr %11, align 8
  %26 = load ptr, ptr @resv_list, align 8
  %27 = call ptr @list_iterator_create(ptr noundef %26)
  store ptr %27, ptr %14, align 8
  br label %28

28:                                               ; preds = %81, %80, %65, %4
  %29 = load ptr, ptr %14, align 8
  %30 = call ptr @list_next(ptr noundef %29)
  store ptr %30, ptr %9, align 8
  %31 = icmp ne ptr %30, null
  br i1 %31, label %32, label %89

32:                                               ; preds = %28
  %33 = load ptr, ptr %9, align 8
  %34 = getelementptr inbounds nuw %struct.slurmctld_resv, ptr %33, i32 0, i32 13
  %35 = load i64, ptr %34, align 8
  %36 = load i64, ptr %12, align 8
  %37 = icmp sle i64 %35, %36
  br i1 %37, label %38, label %41

38:                                               ; preds = %32
  %39 = load ptr, ptr %9, align 8
  %40 = call i32 @_advance_resv_time(ptr noundef %39)
  br label %41

41:                                               ; preds = %38, %32
  %42 = load i8, ptr %8, align 1, !range !11, !noundef !12
  %43 = trunc i8 %42 to i1
  br i1 %43, label %44, label %51

44:                                               ; preds = %41
  %45 = load i64, ptr %11, align 8
  %46 = load ptr, ptr %9, align 8
  %47 = getelementptr inbounds nuw %struct.slurmctld_resv, ptr %46, i32 0, i32 5
  %48 = load i32, ptr %47, align 8
  %49 = zext i32 %48 to i64
  %50 = add nsw i64 %45, %49
  store i64 %50, ptr %13, align 8
  br label %53

51:                                               ; preds = %41
  %52 = load i64, ptr %11, align 8
  store i64 %52, ptr %13, align 8
  br label %53

53:                                               ; preds = %51, %44
  %54 = load ptr, ptr %9, align 8
  %55 = getelementptr inbounds nuw %struct.slurmctld_resv, ptr %54, i32 0, i32 32
  %56 = load i64, ptr %55, align 8
  %57 = load i64, ptr %13, align 8
  %58 = icmp sge i64 %56, %57
  br i1 %58, label %65, label %59

59:                                               ; preds = %53
  %60 = load ptr, ptr %9, align 8
  %61 = getelementptr inbounds nuw %struct.slurmctld_resv, ptr %60, i32 0, i32 13
  %62 = load i64, ptr %61, align 8
  %63 = load i64, ptr %10, align 8
  %64 = icmp sle i64 %62, %63
  br i1 %64, label %65, label %66

65:                                               ; preds = %59, %53
  br label %28, !llvm.loop !67

66:                                               ; preds = %59
  %67 = load ptr, ptr %5, align 8
  %68 = getelementptr inbounds nuw %struct.job_record, ptr %67, i32 0, i32 110
  %69 = load ptr, ptr %68, align 8
  %70 = icmp ne ptr %69, null
  br i1 %70, label %71, label %81

71:                                               ; preds = %66
  %72 = load ptr, ptr %5, align 8
  %73 = getelementptr inbounds nuw %struct.job_record, ptr %72, i32 0, i32 110
  %74 = load ptr, ptr %73, align 8
  %75 = load ptr, ptr %9, align 8
  %76 = getelementptr inbounds nuw %struct.slurmctld_resv, ptr %75, i32 0, i32 24
  %77 = load ptr, ptr %76, align 8
  %78 = call i32 @xstrcmp(ptr noundef %74, ptr noundef %77)
  %79 = icmp eq i32 %78, 0
  br i1 %79, label %80, label %81

80:                                               ; preds = %71
  br label %28, !llvm.loop !67

81:                                               ; preds = %71, %66
  %82 = load ptr, ptr %9, align 8
  %83 = getelementptr inbounds nuw %struct.slurmctld_resv, ptr %82, i32 0, i32 21
  %84 = load ptr, ptr %83, align 8
  %85 = load ptr, ptr %6, align 8
  %86 = call i32 @_license_cnt(ptr noundef %84, ptr noundef %85)
  %87 = load i32, ptr %15, align 4
  %88 = add nsw i32 %87, %86
  store i32 %88, ptr %15, align 4
  br label %28, !llvm.loop !67

89:                                               ; preds = %28
  %90 = load ptr, ptr %14, align 8
  call void @list_iterator_destroy(ptr noundef %90)
  %91 = load i32, ptr %15, align 4
  call void @llvm.lifetime.end.p0(i64 4, ptr %15) #10
  call void @llvm.lifetime.end.p0(i64 8, ptr %14) #10
  call void @llvm.lifetime.end.p0(i64 8, ptr %13) #10
  call void @llvm.lifetime.end.p0(i64 8, ptr %12) #10
  call void @llvm.lifetime.end.p0(i64 8, ptr %11) #10
  call void @llvm.lifetime.end.p0(i64 8, ptr %10) #10
  call void @llvm.lifetime.end.p0(i64 8, ptr %9) #10
  ret i32 %91
}