; Function Attrs: nounwind uwtable
define dso_local i32 @job_test_lic_resv(ptr noundef readonly captures(none) %0, ptr noundef %1, i64 noundef %2, i1 noundef zeroext %3) local_unnamed_addr #0 {
  %5 = tail call i64 @time(ptr noundef null) #19
  %6 = getelementptr inbounds nuw i8, ptr %0, i64 976
  %7 = load i32, ptr %6, align 8
  switch i32 %7, label %8 [
    i32 -1, label %17
    i32 -2, label %10
  ]

8:                                                ; preds = %4
  %9 = mul i32 %7, 60
  br label %17

10:                                               ; preds = %4
  %11 = getelementptr inbounds nuw i8, ptr %0, i64 672
  %12 = load ptr, ptr %11, align 8
  %13 = getelementptr inbounds nuw i8, ptr %12, i64 212
  %14 = load i32, ptr %13, align 4
  %15 = icmp eq i32 %14, -1
  %16 = mul i32 %14, 60
  %spec.select.i = select i1 %15, i32 31536000, i32 %16
  br label %17

17:                                               ; preds = %10, %8, %4
  %.013.i = phi i32 [ %9, %8 ], [ 31536000, %4 ], [ %spec.select.i, %10 ]
  %18 = getelementptr inbounds nuw i8, ptr %0, i64 672
  %19 = load ptr, ptr %18, align 8
  %.not18.i = icmp eq ptr %19, null
  br i1 %.not18.i, label %_get_job_duration.exit, label %20

20:                                               ; preds = %17
  %21 = getelementptr inbounds nuw i8, ptr %19, i64 208
  %22 = load i16, ptr %21, align 8
  %23 = and i16 %22, 32767
  %24 = zext nneg i16 %23 to i32
  br label %_get_job_duration.exit

_get_job_duration.exit:                           ; preds = %17, %20
  %.0.i = phi i32 [ %24, %20 ], [ 1, %17 ]
  %25 = icmp eq i32 %.013.i, 31536000
  %26 = icmp samesign ult i32 %.0.i, 2
  %or.cond.not22.i = select i1 %25, i1 true, i1 %26
  %27 = load i16, ptr getelementptr inbounds nuw (i8, ptr @slurm_conf, i64 796), align 4
  %.not19.i = icmp sgt i16 %27, -1
  %or.cond20.i = select i1 %or.cond.not22.i, i1 true, i1 %.not19.i
  %28 = select i1 %or.cond20.i, i32 1, i32 %.0.i
  %.1.i = mul i32 %28, %.013.i
  %29 = zext i32 %.1.i to i64
  %30 = add nsw i64 %2, %29
  %31 = load ptr, ptr @resv_list, align 8
  %32 = tail call ptr @list_iterator_create(ptr noundef %31) #19
  %33 = tail call ptr @list_next(ptr noundef %32) #19
  %.not3335 = icmp eq ptr %33, null
  br i1 %.not3335, label %.outer._crit_edge, label %.lr.ph.lr.ph

.lr.ph.lr.ph:                                     ; preds = %_get_job_duration.exit
  %34 = getelementptr inbounds nuw i8, ptr %0, i64 816
  br label %.lr.ph

.lr.ph:                                           ; preds = %.lr.ph.lr.ph, %_license_cnt.exit
  %35 = phi ptr [ %33, %.lr.ph.lr.ph ], [ %79, %_license_cnt.exit ]
  %.0.ph36 = phi i32 [ 0, %.lr.ph.lr.ph ], [ %78, %_license_cnt.exit ]
  br label %36

36:                                               ; preds = %.lr.ph, %.backedge
  %37 = phi ptr [ %35, %.lr.ph ], [ %53, %.backedge ]
  %38 = getelementptr inbounds nuw i8, ptr %37, i64 104
  %39 = load i64, ptr %38, align 8
  %.not26 = icmp sgt i64 %39, %5
  br i1 %.not26, label %42, label %40

40:                                               ; preds = %36
  %41 = tail call fastcc i32 @_advance_resv_time(ptr noundef nonnull %37)
  br label %42

42:                                               ; preds = %40, %36
  br i1 %3, label %43, label %48

43:                                               ; preds = %42
  %44 = getelementptr inbounds nuw i8, ptr %37, i64 40
  %45 = load i32, ptr %44, align 8
  %46 = zext i32 %45 to i64
  %47 = add nsw i64 %30, %46
  br label %48

48:                                               ; preds = %42, %43
  %.023 = phi i64 [ %47, %43 ], [ %30, %42 ]
  %49 = getelementptr inbounds nuw i8, ptr %37, i64 240
  %50 = load i64, ptr %49, align 8
  %.not27 = icmp slt i64 %50, %.023
  br i1 %.not27, label %51, label %.backedge

51:                                               ; preds = %48
  %52 = load i64, ptr %38, align 8
  %.not28 = icmp sgt i64 %52, %2
  br i1 %.not28, label %54, label %.backedge

.backedge:                                        ; preds = %48, %51, %56
  %53 = tail call ptr @list_next(ptr noundef %32) #19
  %.not = icmp eq ptr %53, null
  br i1 %.not, label %.outer._crit_edge, label %36, !llvm.loop !73

54:                                               ; preds = %51
  %55 = load ptr, ptr %34, align 8
  %.not29 = icmp eq ptr %55, null
  br i1 %.not29, label %61, label %56

56:                                               ; preds = %54
  %57 = getelementptr inbounds nuw i8, ptr %37, i64 184
  %58 = load ptr, ptr %57, align 8
  %59 = tail call i32 @xstrcmp(ptr noundef nonnull %55, ptr noundef %58) #19
  %60 = icmp eq i32 %59, 0
  br i1 %60, label %.backedge, label %61

61:                                               ; preds = %56, %54
  %62 = getelementptr inbounds nuw i8, ptr %37, i64 160
  %63 = load ptr, ptr %62, align 8
  %64 = icmp eq ptr %63, null
  br i1 %64, label %_license_cnt.exit, label %65

65:                                               ; preds = %61
  %66 = tail call ptr @list_iterator_create(ptr noundef nonnull %63) #19
  %67 = tail call ptr @list_next(ptr noundef %66) #19
  %.not13.i = icmp eq ptr %67, null
  br i1 %.not13.i, label %._crit_edge.i, label %.lr.ph.i

.lr.ph.i:                                         ; preds = %65, %76
  %68 = phi ptr [ %77, %76 ], [ %67, %65 ]
  %.01014.i = phi i32 [ %.1.i30, %76 ], [ 0, %65 ]
  %69 = load ptr, ptr %68, align 8
  %70 = tail call i32 @xstrcmp(ptr noundef %69, ptr noundef %1) #19
  %71 = icmp eq i32 %70, 0
  br i1 %71, label %72, label %76

72:                                               ; preds = %.lr.ph.i
  %73 = getelementptr inbounds nuw i8, ptr %68, i64 8
  %74 = load i32, ptr %73, align 8
  %75 = add i32 %74, %.01014.i
  br label %76

76:                                               ; preds = %72, %.lr.ph.i
  %.1.i30 = phi i32 [ %75, %72 ], [ %.01014.i, %.lr.ph.i ]
  %77 = tail call ptr @list_next(ptr noundef %66) #19
  %.not.i = icmp eq ptr %77, null
  br i1 %.not.i, label %._crit_edge.i, label %.lr.ph.i, !llvm.loop !74

._crit_edge.i:                                    ; preds = %76, %65
  %.010.lcssa.i = phi i32 [ 0, %65 ], [ %.1.i30, %76 ]
  tail call void @list_iterator_destroy(ptr noundef %66) #19
  br label %_license_cnt.exit

_license_cnt.exit:                                ; preds = %61, %._crit_edge.i
  %.0.i31 = phi i32 [ %.010.lcssa.i, %._crit_edge.i ], [ 0, %61 ]
  %78 = add nsw i32 %.0.i31, %.0.ph36
  %79 = tail call ptr @list_next(ptr noundef %32) #19
  %.not33 = icmp eq ptr %79, null
  br i1 %.not33, label %.outer._crit_edge, label %.lr.ph, !llvm.loop !73

.outer._crit_edge:                                ; preds = %_license_cnt.exit, %.backedge, %_get_job_duration.exit
  %.0.ph.lcssa = phi i32 [ 0, %_get_job_duration.exit ], [ %.0.ph36, %.backedge ], [ %78, %_license_cnt.exit ]
  tail call void @list_iterator_destroy(ptr noundef %32) #19
  ret i32 %.0.ph.lcssa
}